target datalayout = "e-m:e-p270:32:32-p271:32:32-p272:64:64-i64:64-i128:128-f80:128-n8:16:32:64-S128"
target triple = "x86_64-unknown-linux-gnu"

%struct.CPUArchState = type { [32 x i64], [32 x i64], [512 x i64], i64, i64, i64, i64, i64, i8, i64, i64, i64, [32 x i64], i64, %struct.float_status, i64, i64, i64, i64, i64, i64, i32, i32, i32, i32, i32, i64, i64, i64, i8, i64, i64, i64, i64, i64, i8, i8, i64, i64, i64, i64, i64, i64, i64, i64, i64, i64, i64, i64, i64, i64, i64, [64 x i8], [64 x i8], i64, i64, i64, i64, i64, i64, i64, i64, i64, i64, i64, i64, i64, i64, i64, i64, i64, [64 x i8], i64, i64, i64, i64, i64, i64, i64, i64, i64, i64, i64, i64, i64, i64, i64, i64, i64, i64, i64, i8, i8, i64, i64, i64, [32 x %struct.PMUCTRState], [32 x i64], [32 x i64], i64, i64, i64, i64, %struct.pmp_table_t, i64, i64, [2 x i64], [2 x i64], [2 x i64], [2 x ptr], [2 x ptr], [2 x ptr], i64, i8, ptr, ptr, [4 x ptr], [4 x ptr], i8, i64, i64, i64, i64, i64, i64, i64, i64, [4 x i64], [4 x i64], [4 x i64], i64, i64, i64, i64, ptr, ptr, i8, i64, i64, [8 x i8] }
%struct.float_status = type { i16, i8, i8, i8, i8, i8, i8, i8, i8, i8, i8, i8 }
%struct.PMUCTRState = type { i64, i64, i64, i64, i8, i64 }
%struct.pmp_table_t = type { [16 x %struct.pmp_entry_t], [16 x %struct.pmp_addr_t], i32 }
%struct.pmp_entry_t = type { i64, i8 }
%struct.pmp_addr_t = type { i64, i64 }

@.str = private unnamed_addr constant [29 x i8] c"../qemu/target/riscv/debug.c\00", align 1
@.str.1 = private unnamed_addr constant [35 x i8] c"trigger type: %d is not supported\0A\00", align 1
@.str.2 = private unnamed_addr constant [32 x i8] c"trigger type: %d does not exit\0A\00", align 1
@.str.3 = private unnamed_addr constant [29 x i8] c"action: %d is not supported\0A\00", align 1
@__func__.do_trigger_action = private unnamed_addr constant [18 x i8] c"do_trigger_action\00", align 1
@__func__.get_trigger_action = private unnamed_addr constant [19 x i8] c"get_trigger_action\00", align 1
@__func__.extract_trigger_type = private unnamed_addr constant [21 x i8] c"extract_trigger_type\00", align 1
@.str.4 = private unnamed_addr constant [49 x i8] c"start >= 0 && length > 0 && length <= 32 - start\00", align 1
@.str.5 = private unnamed_addr constant [100 x i8] c"/home/dtcxzyw/WorkSpace/Projects/compilers/llvm-opt-benchmark/bench/qemu/qemu/include/qemu/bitops.h\00", align 1
@__PRETTY_FUNCTION__.extract32 = private unnamed_addr constant [39 x i8] c"uint32_t extract32(uint32_t, int, int)\00", align 1
@.str.6 = private unnamed_addr constant [49 x i8] c"start >= 0 && length > 0 && length <= 64 - start\00", align 1
@__PRETTY_FUNCTION__.extract64 = private unnamed_addr constant [39 x i8] c"uint64_t extract64(uint64_t, int, int)\00", align 1
@qemu_loglevel = external global i32, align 4

; Function Attrs: nounwind sspstrong uwtable
define internal i64 @extract64(i64 noundef %value, i32 noundef %start, i32 noundef %length) #0 {
entry:
  %value.addr = alloca i64, align 8
  %start.addr = alloca i32, align 4
  %length.addr = alloca i32, align 4
  store i64 %value, ptr %value.addr, align 8
  store i32 %start, ptr %start.addr, align 4
  store i32 %length, ptr %length.addr, align 4
  %0 = load i32, ptr %start.addr, align 4
  %cmp = icmp sge i32 %0, 0
  br i1 %cmp, label %land.lhs.true, label %if.else

land.lhs.true:                                    ; preds = %entry
  %1 = load i32, ptr %length.addr, align 4
  %cmp1 = icmp sgt i32 %1, 0
  br i1 %cmp1, label %land.lhs.true2, label %if.else

land.lhs.true2:                                   ; preds = %land.lhs.true
  %2 = load i32, ptr %length.addr, align 4
  %3 = load i32, ptr %start.addr, align 4
  %sub = sub i32 64, %3
  %cmp3 = icmp sle i32 %2, %sub
  br i1 %cmp3, label %if.then, label %if.else

if.then:                                          ; preds = %land.lhs.true2
  br label %if.end

if.else:                                          ; preds = %land.lhs.true2, %land.lhs.true, %entry
  call void @__assert_fail(ptr noundef @.str.6, ptr noundef @.str.5, i32 noundef 395, ptr noundef @__PRETTY_FUNCTION__.extract64) #6
  unreachable

if.end:                                           ; preds = %if.then
  %4 = load i64, ptr %value.addr, align 8
  %5 = load i32, ptr %start.addr, align 4
  %sh_prom = zext i32 %5 to i64
  %shr = lshr i64 %4, %sh_prom
  %6 = load i32, ptr %length.addr, align 4
  %sub4 = sub i32 64, %6
  %sh_prom5 = zext i32 %sub4 to i64
  %shr6 = lshr i64 -1, %sh_prom5
  %and = and i64 %shr, %shr6
  ret i64 %and
}

; Function Attrs: nounwind sspstrong uwtable
define internal i32 @extract32(i32 noundef %value, i32 noundef %start, i32 noundef %length) #0 {
entry:
  %value.addr = alloca i32, align 4
  %start.addr = alloca i32, align 4
  %length.addr = alloca i32, align 4
  store i32 %value, ptr %value.addr, align 4
  store i32 %start, ptr %start.addr, align 4
  store i32 %length, ptr %length.addr, align 4
  %0 = load i32, ptr %start.addr, align 4
  %cmp = icmp sge i32 %0, 0
  br i1 %cmp, label %land.lhs.true, label %if.else

land.lhs.true:                                    ; preds = %entry
  %1 = load i32, ptr %length.addr, align 4
  %cmp1 = icmp sgt i32 %1, 0
  br i1 %cmp1, label %land.lhs.true2, label %if.else

land.lhs.true2:                                   ; preds = %land.lhs.true
  %2 = load i32, ptr %length.addr, align 4
  %3 = load i32, ptr %start.addr, align 4
  %sub = sub i32 32, %3
  %cmp3 = icmp sle i32 %2, %sub
  br i1 %cmp3, label %if.then, label %if.else

if.then:                                          ; preds = %land.lhs.true2
  br label %if.end

if.else:                                          ; preds = %land.lhs.true2, %land.lhs.true, %entry
  call void @__assert_fail(ptr noundef @.str.4, ptr noundef @.str.5, i32 noundef 338, ptr noundef @__PRETTY_FUNCTION__.extract32) #6
  unreachable

if.end:                                           ; preds = %if.then
  %4 = load i32, ptr %value.addr, align 4
  %5 = load i32, ptr %start.addr, align 4
  %shr = lshr i32 %4, %5
  %6 = load i32, ptr %length.addr, align 4
  %sub4 = sub i32 32, %6
  %shr5 = lshr i32 -1, %sub4
  %and = and i32 %shr, %shr5
  ret i32 %and
}

; Function Attrs: nounwind sspstrong uwtable
define internal i32 @riscv_cpu_mxl(ptr noundef %env) #0 {
entry:
  %env.addr = alloca ptr, align 8
  store ptr %env, ptr %env.addr, align 8
  %0 = load ptr, ptr %env.addr, align 8
  %misa_mxl = getelementptr inbounds %struct.CPUArchState, ptr %0, i32 0, i32 21
  %1 = load i32, ptr %misa_mxl, align 16
  ret i32 %1
}

; Function Attrs: nounwind sspstrong uwtable
define internal i64 @extract_trigger_type(ptr noundef %env, i64 noundef %tdata1) #0 {
entry:
  %retval = alloca i64, align 8
  %env.addr = alloca ptr, align 8
  %tdata1.addr = alloca i64, align 8
  store ptr %env, ptr %env.addr, align 8
  store i64 %tdata1, ptr %tdata1.addr, align 8
  %0 = load ptr, ptr %env.addr, align 8
  %call = call i32 @riscv_cpu_mxl(ptr noundef %0)
  switch i32 %call, label %sw.default [
    i32 1, label %sw.bb
    i32 2, label %sw.bb3
    i32 3, label %sw.bb3
  ]

sw.bb:                                            ; preds = %entry
  %1 = load i64, ptr %tdata1.addr, align 8
  %conv = trunc i64 %1 to i32
  %call1 = call i32 @extract32(i32 noundef %conv, i32 noundef 28, i32 noundef 4)
  %conv2 = zext i32 %call1 to i64
  store i64 %conv2, ptr %retval, align 8
  br label %sw.epilog

sw.bb3:                                           ; preds = %entry, %entry
  %2 = load i64, ptr %tdata1.addr, align 8
  %call4 = call i64 @extract64(i64 noundef %2, i32 noundef 60, i32 noundef 4)
  store i64 %call4, ptr %retval, align 8
  br label %sw.epilog

sw.default:                                       ; preds = %entry
  br label %do.body

do.body:                                          ; preds = %sw.default
  call void @g_assertion_message_expr(ptr noundef null, ptr noundef @.str, i32 noundef 87, ptr noundef @__func__.extract_trigger_type, ptr noundef null) #5
  unreachable

do.end:                                           ; No predecessors!
  br label %sw.epilog

sw.epilog:                                        ; preds = %do.end, %sw.bb3, %sw.bb
  %3 = load i64, ptr %retval, align 8
  ret i64 %3
}

; Function Attrs: nounwind sspstrong uwtable
define internal i64 @get_trigger_type(ptr noundef %env, i64 noundef %trigger_index) #0 {
entry:
  %env.addr = alloca ptr, align 8
  %trigger_index.addr = alloca i64, align 8
  store ptr %env, ptr %env.addr, align 8
  store i64 %trigger_index, ptr %trigger_index.addr, align 8
  %0 = load ptr, ptr %env.addr, align 8
  %1 = load ptr, ptr %env.addr, align 8
  %tdata1 = getelementptr inbounds %struct.CPUArchState, ptr %1, i32 0, i32 106
  %2 = load i64, ptr %trigger_index.addr, align 8
  %arrayidx = getelementptr [2 x i64], ptr %tdata1, i64 0, i64 %2
  %3 = load i64, ptr %arrayidx, align 8
  %call = call i64 @extract_trigger_type(ptr noundef %0, i64 noundef %3)
  ret i64 %call
}

; Function Attrs: nounwind sspstrong uwtable
define internal zeroext i1 @qemu_loglevel_mask(i32 noundef %mask) #0 {
entry:
  %mask.addr = alloca i32, align 4
  store i32 %mask, ptr %mask.addr, align 4
  %0 = load i32, ptr @qemu_loglevel, align 4
  %1 = load i32, ptr %mask.addr, align 4
  %and = and i32 %0, %1
  %cmp = icmp ne i32 %and, 0
  ret i1 %cmp
}

; Function Attrs: nounwind sspstrong uwtable
define internal i32 @get_trigger_action(ptr noundef %env, i64 noundef %trigger_index) #0 {
entry:
  %env.addr = alloca ptr, align 8
  %trigger_index.addr = alloca i64, align 8
  %tdata1 = alloca i64, align 8
  %trigger_type = alloca i32, align 4
  %action = alloca i32, align 4
  store ptr %env, ptr %env.addr, align 8
  store i64 %trigger_index, ptr %trigger_index.addr, align 8
  %0 = load ptr, ptr %env.addr, align 8
  %tdata11 = getelementptr inbounds %struct.CPUArchState, ptr %0, i32 0, i32 106
  %1 = load i64, ptr %trigger_index.addr, align 8
  %arrayidx = getelementptr [2 x i64], ptr %tdata11, i64 0, i64 %1
  %2 = load i64, ptr %arrayidx, align 8
  store i64 %2, ptr %tdata1, align 8
  %3 = load ptr, ptr %env.addr, align 8
  %4 = load i64, ptr %trigger_index.addr, align 8
  %call = call i64 @get_trigger_type(ptr noundef %3, i64 noundef %4)
  %conv = trunc i64 %call to i32
  store i32 %conv, ptr %trigger_type, align 4
  store i32 -1, ptr %action, align 4
  %5 = load i32, ptr %trigger_type, align 4
  switch i32 %5, label %sw.default [
    i32 2, label %sw.bb
    i32 6, label %sw.bb3
    i32 3, label %sw.bb7
    i32 4, label %sw.bb7
    i32 5, label %sw.bb7
    i32 7, label %sw.bb7
    i32 0, label %sw.bb11
    i32 15, label %sw.bb11
  ]

sw.bb:                                            ; preds = %entry
  %6 = load i64, ptr %tdata1, align 8
  %and = and i64 %6, 61440
  %shr = lshr i64 %and, 12
  %conv2 = trunc i64 %shr to i32
  store i32 %conv2, ptr %action, align 4
  br label %sw.epilog

sw.bb3:                                           ; preds = %entry
  %7 = load i64, ptr %tdata1, align 8
  %and4 = and i64 %7, 61440
  %shr5 = lshr i64 %and4, 12
  %conv6 = trunc i64 %shr5 to i32
  store i32 %conv6, ptr %action, align 4
  br label %sw.epilog

sw.bb7:                                           ; preds = %entry, %entry, %entry, %entry
  br label %do.body

do.body:                                          ; preds = %sw.bb7
  %call8 = call zeroext i1 @qemu_loglevel_mask(i32 noundef 1024)
  %lnot = xor i1 %call8, true
  %lnot9 = xor i1 %lnot, true
  %lnot.ext = zext i1 %lnot9 to i32
  %conv10 = sext i32 %lnot.ext to i64
  %tobool = icmp ne i64 %conv10, 0
  br i1 %tobool, label %if.then, label %if.end

if.then:                                          ; preds = %do.body
  %8 = load i32, ptr %trigger_type, align 4
  call void (ptr, ...) @qemu_log(ptr noundef @.str.1, i32 noundef %8)
  br label %if.end

if.end:                                           ; preds = %if.then, %do.body
  br label %do.end

do.end:                                           ; preds = %if.end
  br label %sw.epilog

sw.bb11:                                          ; preds = %entry, %entry
  br label %do.body12

do.body12:                                        ; preds = %sw.bb11
  %call13 = call zeroext i1 @qemu_loglevel_mask(i32 noundef 2048)
  %lnot14 = xor i1 %call13, true
  %lnot16 = xor i1 %lnot14, true
  %lnot.ext17 = zext i1 %lnot16 to i32
  %conv18 = sext i32 %lnot.ext17 to i64
  %tobool19 = icmp ne i64 %conv18, 0
  br i1 %tobool19, label %if.then20, label %if.end21

if.then20:                                        ; preds = %do.body12
  %9 = load i32, ptr %trigger_type, align 4
  call void (ptr, ...) @qemu_log(ptr noundef @.str.2, i32 noundef %9)
  br label %if.end21

if.end21:                                         ; preds = %if.then20, %do.body12
  br label %do.end22

do.end22:                                         ; preds = %if.end21
  br label %sw.epilog

sw.default:                                       ; preds = %entry
  br label %do.body23

do.body23:                                        ; preds = %sw.default
  call void @g_assertion_message_expr(ptr noundef null, ptr noundef @.str, i32 noundef 124, ptr noundef @__func__.get_trigger_action, ptr noundef null) #5
  unreachable

do.end24:                                         ; No predecessors!
  br label %sw.epilog

sw.epilog:                                        ; preds = %do.end24, %do.end22, %do.end, %sw.bb3, %sw.bb
  %10 = load i32, ptr %action, align 4
  ret i32 %10
}

; Function Attrs: nounwind sspstrong uwtable
define internal void @do_trigger_action(ptr noundef %env, i64 noundef %trigger_index) #0 {
entry:
  %env.addr = alloca ptr, align 8
  %trigger_index.addr = alloca i64, align 8
  %action = alloca i32, align 4
  store ptr %env, ptr %env.addr, align 8
  store i64 %trigger_index, ptr %trigger_index.addr, align 8
  %0 = load ptr, ptr %env.addr, align 8
  %1 = load i64, ptr %trigger_index.addr, align 8
  %call = call i32 @get_trigger_action(ptr noundef %0, i64 noundef %1)
  store i32 %call, ptr %action, align 4
  %2 = load i32, ptr %action, align 4
  switch i32 %2, label %sw.default [
    i32 -1, label %sw.bb
    i32 0, label %sw.bb1
    i32 1, label %sw.bb2
    i32 2, label %sw.bb2
    i32 3, label %sw.bb2
    i32 4, label %sw.bb2
    i32 5, label %sw.bb2
    i32 8, label %sw.bb2
    i32 9, label %sw.bb2
  ]

sw.bb:                                            ; preds = %entry
  br label %sw.epilog

sw.bb1:                                           ; preds = %entry
  %3 = load ptr, ptr %env.addr, align 8
  call void @riscv_raise_exception(ptr noundef %3, i32 noundef 3, i64 noundef 0) #5
  unreachable

sw.bb2:                                           ; preds = %entry, %entry, %entry, %entry, %entry, %entry, %entry
  br label %do.body

do.body:                                          ; preds = %sw.bb2
  %call3 = call zeroext i1 @qemu_loglevel_mask(i32 noundef 1024)
  %lnot = xor i1 %call3, true
  %lnot4 = xor i1 %lnot, true
  %lnot.ext = zext i1 %lnot4 to i32
  %conv = sext i32 %lnot.ext to i64
  %tobool = icmp ne i64 %conv, 0
  br i1 %tobool, label %if.then, label %if.end

if.then:                                          ; preds = %do.body
  %4 = load i32, ptr %action, align 4
  call void (ptr, ...) @qemu_log(ptr noundef @.str.3, i32 noundef %4)
  br label %if.end

if.end:                                           ; preds = %if.then, %do.body
  br label %do.end

do.end:                                           ; preds = %if.end
  br label %sw.epilog

sw.default:                                       ; preds = %entry
  br label %do.body5

do.body5:                                         ; preds = %sw.default
  call void @g_assertion_message_expr(ptr noundef null, ptr noundef @.str, i32 noundef 240, ptr noundef @__func__.do_trigger_action, ptr noundef null) #5
  unreachable

do.end6:                                          ; No predecessors!
  br label %sw.epilog

sw.epilog:                                        ; preds = %do.end6, %do.end, %sw.bb
  ret void
}