; Function Attrs: nounwind sspstrong uwtable
define internal fastcc void @do_trigger_action(ptr noundef %env, i64 noundef range(i64 0, 2) %trigger_index) unnamed_addr #0 {
entry:
  %tdata11.i = getelementptr inbounds nuw i8, ptr %env, i64 8360
  %arrayidx.i = getelementptr [2 x i64], ptr %tdata11.i, i64 0, i64 %trigger_index
  %0 = load i64, ptr %arrayidx.i, align 8
  %1 = getelementptr i8, ptr %env, i64 5008
  %env.val.i.i = load i32, ptr %1, align 16
  switch i32 %env.val.i.i, label %do.body.i.i.i [
    i32 1, label %sw.bb.i.i.i
    i32 2, label %sw.bb3.i.i.i
    i32 3, label %sw.bb3.i.i.i
  ]

sw.bb.i.i.i:                                      ; preds = %entry
  %shr.i.i.i.i = lshr i64 %0, 28
  %conv2.i.i.i = and i64 %shr.i.i.i.i, 15
  br label %get_trigger_type.exit.i

sw.bb3.i.i.i:                                     ; preds = %entry, %entry
  %shr.i2.i.i.i = lshr i64 %0, 60
  br label %get_trigger_type.exit.i

do.body.i.i.i:                                    ; preds = %entry
  tail call void @g_assertion_message_expr(ptr noundef null, ptr noundef nonnull @.str, i32 noundef 87, ptr noundef nonnull @__func__.extract_trigger_type, ptr noundef null) #7
  unreachable

get_trigger_type.exit.i:                          ; preds = %sw.bb3.i.i.i, %sw.bb.i.i.i
  %retval.0.i.i.i = phi i64 [ %shr.i2.i.i.i, %sw.bb3.i.i.i ], [ %conv2.i.i.i, %sw.bb.i.i.i ]
  %conv.i = trunc nuw nsw i64 %retval.0.i.i.i to i32
  switch i32 %conv.i, label %do.body23.i [
    i32 2, label %get_trigger_action.exit
    i32 6, label %get_trigger_action.exit
    i32 3, label %do.body.i
    i32 4, label %do.body.i
    i32 5, label %do.body.i
    i32 7, label %do.body.i
    i32 0, label %do.body12.i
    i32 15, label %do.body12.i
  ]

do.body.i:                                        ; preds = %get_trigger_type.exit.i, %get_trigger_type.exit.i, %get_trigger_type.exit.i, %get_trigger_type.exit.i
  %2 = load i32, ptr @qemu_loglevel, align 4
  %and.i.i = and i32 %2, 1024
  %cmp.i.not.i = icmp eq i32 %and.i.i, 0
  br i1 %cmp.i.not.i, label %sw.epilog, label %if.then.i

if.then.i:                                        ; preds = %do.body.i
  tail call void (ptr, ...) @qemu_log(ptr noundef nonnull @.str.1, i32 noundef %conv.i) #8
  br label %sw.epilog

do.body12.i:                                      ; preds = %get_trigger_type.exit.i, %get_trigger_type.exit.i
  %3 = load i32, ptr @qemu_loglevel, align 4
  %and.i6.i = and i32 %3, 2048
  %cmp.i7.not.i = icmp eq i32 %and.i6.i, 0
  br i1 %cmp.i7.not.i, label %sw.epilog, label %if.then20.i

if.then20.i:                                      ; preds = %do.body12.i
  tail call void (ptr, ...) @qemu_log(ptr noundef nonnull @.str.2, i32 noundef %conv.i) #8
  br label %sw.epilog

do.body23.i:                                      ; preds = %get_trigger_type.exit.i
  tail call void @g_assertion_message_expr(ptr noundef null, ptr noundef nonnull @.str, i32 noundef 124, ptr noundef nonnull @__func__.get_trigger_action, ptr noundef null) #7
  unreachable

get_trigger_action.exit:                          ; preds = %get_trigger_type.exit.i, %get_trigger_type.exit.i
  %action.0.i.in.in = trunc i64 %0 to i32
  %action.0.i.in = lshr i32 %action.0.i.in.in, 12
  %action.0.i = and i32 %action.0.i.in, 15
  switch i32 %action.0.i, label %do.body5 [
    i32 9, label %do.body
    i32 0, label %sw.bb1
    i32 1, label %do.body
    i32 2, label %do.body
    i32 3, label %do.body
    i32 4, label %do.body
    i32 5, label %do.body
    i32 8, label %do.body
  ]

sw.bb1:                                           ; preds = %get_trigger_action.exit
  tail call void @riscv_raise_exception(ptr noundef nonnull %env, i32 noundef 3, i64 noundef 0) #7
  unreachable

do.body:                                          ; preds = %get_trigger_action.exit, %get_trigger_action.exit, %get_trigger_action.exit, %get_trigger_action.exit, %get_trigger_action.exit, %get_trigger_action.exit, %get_trigger_action.exit
  %4 = load i32, ptr @qemu_loglevel, align 4
  %and.i = and i32 %4, 1024
  %cmp.i.not = icmp eq i32 %and.i, 0
  br i1 %cmp.i.not, label %sw.epilog, label %if.then

if.then:                                          ; preds = %do.body
  tail call void (ptr, ...) @qemu_log(ptr noundef nonnull @.str.3, i32 noundef %action.0.i) #8
  br label %sw.epilog

do.body5:                                         ; preds = %get_trigger_action.exit
  tail call void @g_assertion_message_expr(ptr noundef null, ptr noundef nonnull @.str, i32 noundef 240, ptr noundef nonnull @__func__.do_trigger_action, ptr noundef null) #7
  unreachable

sw.epilog:                                        ; preds = %do.body.i, %if.then.i, %do.body12.i, %if.then20.i, %if.then, %do.body
  ret void
}